(lp0
VBergenfield
p1
aVBloomingdale
p2
aVBogota
p3
aVCedar Grove
p4
aVCliffside Park
p5
aVClifton
p6
aVEdgewater
p7
aVElmwood Park
p8
aVEnglewood
p9
aVFair Lawn
p10
aVFort Lee
p11
aVFranklin Lakes
p12
aVGarfield
p13
aVHackensack
p14
a.